target datalayout = "e-m:e-p270:32:32-p271:32:32-p272:64:64-i64:64-i128:128-f80:128-n8:16:32:64-S128"
target triple = "x86_64-pc-linux-gnu"

@.str.22 = private unnamed_addr constant [121 x i8] c"generated/home/dtcxzyw/WorkSpace/Projects/compilers/llvm-opt-benchmark/bench/gromacs/gromacs/src/gromacs/fileio/xvgr.cpp\00", align 1
@.str.77 = private unnamed_addr constant [5 x i8] c"*ptr\00", align 1

; Function Attrs: mustprogress uwtable
define internal void @_ZL15gmx_srenew_implIcEvPKcS1_iRPT_m(ptr noundef %0, ptr noundef %1, i32 noundef %2, ptr noundef nonnull align 8 dereferenceable(8) %3, i64 noundef %4) #0 {
  %6 = alloca ptr, align 8
  %7 = alloca ptr, align 8
  %8 = alloca i32, align 4
  %9 = alloca ptr, align 8
  %10 = alloca i64, align 8
  store ptr %0, ptr %6, align 8
  store ptr %1, ptr %7, align 8
  store i32 %2, ptr %8, align 4
  store ptr %3, ptr %9, align 8
  store i64 %4, ptr %10, align 8
  %11 = load ptr, ptr %6, align 8
  %12 = load ptr, ptr %7, align 8
  %13 = load i32, ptr %8, align 4
  %14 = load ptr, ptr %9, align 8
  %15 = load ptr, ptr %14, align 8
  %16 = load i64, ptr %10, align 8
  %17 = call noundef ptr @_Z12save_reallocPKcS0_iPvmm(ptr noundef %11, ptr noundef %12, i32 noundef %13, ptr noundef %15, i64 noundef %16, i64 noundef 1)
  %18 = load ptr, ptr %9, align 8
  store ptr %17, ptr %18, align 8
  ret void
}

; Function Attrs: mustprogress uwtable
define internal noundef ptr @_ZL6fgets3P8_IO_FILEPPcPii(ptr noundef %0, ptr noundef %1, ptr noundef %2, i32 noundef %3) #0 {
  %5 = alloca ptr, align 8
  %6 = alloca ptr, align 8
  %7 = alloca ptr, align 8
  %8 = alloca ptr, align 8
  %9 = alloca i32, align 4
  %10 = alloca i32, align 4
  %11 = alloca i32, align 4
  %12 = alloca i32, align 4
  store ptr %0, ptr %6, align 8
  store ptr %1, ptr %7, align 8
  store ptr %2, ptr %8, align 8
  store i32 %3, ptr %9, align 4
  %13 = load ptr, ptr %8, align 8
  %14 = load i32, ptr %13, align 4
  store i32 %14, ptr %10, align 4
  store i32 0, ptr %11, align 4
  br label %15

15:                                               ; preds = %61, %4
  %16 = load i32, ptr %10, align 4
  %17 = icmp slt i32 %16, 2
  br i1 %17, label %18, label %36

18:                                               ; preds = %15
  %19 = load ptr, ptr %8, align 8
  %20 = load i32, ptr %19, align 4
  %21 = add nsw i32 %20, 4096
  %22 = load i32, ptr %9, align 4
  %23 = icmp slt i32 %21, %22
  br i1 %23, label %24, label %34

24:                                               ; preds = %18
  %25 = load ptr, ptr %8, align 8
  %26 = load i32, ptr %25, align 4
  %27 = add nsw i32 %26, 4096
  store i32 %27, ptr %25, align 4
  %28 = load i32, ptr %10, align 4
  %29 = add nsw i32 %28, 4096
  store i32 %29, ptr %10, align 4
  %30 = load ptr, ptr %7, align 8
  %31 = load ptr, ptr %8, align 8
  %32 = load i32, ptr %31, align 4
  %33 = sext i32 %32 to i64
  call void @_ZL15gmx_srenew_implIcEvPKcS1_iRPT_m(ptr noundef @.str.77, ptr noundef @.str.22, i32 noundef 452, ptr noundef nonnull align 8 dereferenceable(8) %30, i64 noundef %33)
  br label %35

34:                                               ; preds = %18
  store i32 4096, ptr %10, align 4
  store i32 0, ptr %11, align 4
  br label %35

35:                                               ; preds = %34, %24
  br label %36

36:                                               ; preds = %35, %15
  %37 = load ptr, ptr %7, align 8
  %38 = load ptr, ptr %37, align 8
  %39 = load i32, ptr %11, align 4
  %40 = sext i32 %39 to i64
  %41 = getelementptr inbounds i8, ptr %38, i64 %40
  %42 = load i32, ptr %10, align 4
  %43 = load ptr, ptr %6, align 8
  %44 = call ptr @fgets(ptr noundef %41, i32 noundef %42, ptr noundef %43)
  %45 = icmp eq ptr %44, null
  br i1 %45, label %46, label %47

46:                                               ; preds = %36
  store ptr null, ptr %5, align 8
  br label %99

47:                                               ; preds = %36
  %48 = load i32, ptr %10, align 4
  %49 = sub nsw i32 %48, 1
  %50 = load i32, ptr %11, align 4
  %51 = add nsw i32 %50, %49
  store i32 %51, ptr %11, align 4
  store i32 1, ptr %10, align 4
  br label %52

52:                                               ; preds = %47
  %53 = load ptr, ptr %7, align 8
  %54 = load ptr, ptr %53, align 8
  %55 = call noundef ptr @strchr(ptr noundef %54, i32 noundef 10) #16
  %56 = icmp eq ptr %55, null
  br i1 %56, label %57, label %61

57:                                               ; preds = %52
  %58 = load ptr, ptr %6, align 8
  %59 = call i32 @feof(ptr noundef %58) #13
  %60 = icmp eq i32 %59, 0
  br label %61

61:                                               ; preds = %57, %52
  %62 = phi i1 [ false, %52 ], [ %60, %57 ]
  br i1 %62, label %15, label %63, !llvm.loop !13

63:                                               ; preds = %61
  %64 = load ptr, ptr %8, align 8
  %65 = load i32, ptr %64, align 4
  %66 = add nsw i32 %65, 4096
  %67 = load i32, ptr %9, align 4
  %68 = icmp sge i32 %66, %67
  br i1 %68, label %69, label %70

69:                                               ; preds = %63
  store ptr null, ptr %5, align 8
  br label %99

70:                                               ; preds = %63
  %71 = load ptr, ptr %6, align 8
  %72 = call i32 @feof(ptr noundef %71) #13
  %73 = icmp ne i32 %72, 0
  br i1 %73, label %74, label %75

74:                                               ; preds = %70
  store ptr null, ptr %5, align 8
  br label %99

75:                                               ; preds = %70
  %76 = load ptr, ptr %7, align 8
  %77 = load ptr, ptr %76, align 8
  %78 = call i64 @strlen(ptr noundef %77) #16
  %79 = trunc i64 %78 to i32
  store i32 %79, ptr %12, align 4
  %80 = load ptr, ptr %7, align 8
  %81 = load ptr, ptr %80, align 8
  %82 = load i32, ptr %12, align 4
  %83 = sub nsw i32 %82, 1
  %84 = sext i32 %83 to i64
  %85 = getelementptr inbounds i8, ptr %81, i64 %84
  %86 = load i8, ptr %85, align 1
  %87 = sext i8 %86 to i32
  %88 = icmp eq i32 %87, 10
  br i1 %88, label %89, label %96

89:                                               ; preds = %75
  %90 = load ptr, ptr %7, align 8
  %91 = load ptr, ptr %90, align 8
  %92 = load i32, ptr %12, align 4
  %93 = sub nsw i32 %92, 1
  %94 = sext i32 %93 to i64
  %95 = getelementptr inbounds i8, ptr %91, i64 %94
  store i8 0, ptr %95, align 1
  br label %96

96:                                               ; preds = %89, %75
  %97 = load ptr, ptr %7, align 8
  %98 = load ptr, ptr %97, align 8
  store ptr %98, ptr %5, align 8
  br label %99

99:                                               ; preds = %96, %74, %69, %46
  %100 = load ptr, ptr %5, align 8
  ret ptr %100
}