; Function Attrs: mustprogress uwtable
define internal fastcc noundef ptr @_ZL6fgets3P8_IO_FILEPPcPii(ptr nocapture noundef %0, ptr nocapture noundef %1, ptr nocapture noundef %2) unnamed_addr #0 {
  %4 = load i32, ptr %2, align 4
  br label %5

5:                                                ; preds = %26, %3
  %.026 = phi i32 [ %4, %3 ], [ 1, %26 ]
  %.025 = phi i32 [ 0, %3 ], [ %28, %26 ]
  %6 = icmp slt i32 %.026, 2
  br i1 %6, label %7, label %16

7:                                                ; preds = %5
  %8 = load i32, ptr %2, align 4
  %9 = icmp slt i32 %8, 36864
  br i1 %9, label %10, label %16

10:                                               ; preds = %7
  %11 = add nsw i32 %8, 4096
  store i32 %11, ptr %2, align 4
  %12 = add nsw i32 %.026, 4096
  %13 = sext i32 %11 to i64
  %14 = load ptr, ptr %1, align 8
  %15 = tail call noundef ptr @_Z12save_reallocPKcS0_iPvmm(ptr noundef nonnull @.str.77, ptr noundef nonnull @.str.22, i32 noundef 452, ptr noundef %14, i64 noundef %13, i64 noundef 1)
  store ptr %15, ptr %1, align 8
  br label %16

16:                                               ; preds = %7, %10, %5
  %.127 = phi i32 [ %12, %10 ], [ %.026, %5 ], [ 4096, %7 ]
  %.1 = phi i32 [ %.025, %10 ], [ %.025, %5 ], [ 0, %7 ]
  %17 = load ptr, ptr %1, align 8
  %18 = sext i32 %.1 to i64
  %19 = getelementptr inbounds i8, ptr %17, i64 %18
  %20 = tail call ptr @fgets(ptr noundef %19, i32 noundef %.127, ptr noundef %0)
  %21 = icmp eq ptr %20, null
  br i1 %21, label %.loopexit, label %22

22:                                               ; preds = %16
  %23 = load ptr, ptr %1, align 8
  %24 = tail call noundef ptr @strchr(ptr noundef nonnull dereferenceable(1) %23, i32 noundef 10) #23
  %25 = icmp eq ptr %24, null
  br i1 %25, label %26, label %.critedge

26:                                               ; preds = %22
  %27 = add nsw i32 %.127, -1
  %28 = add nsw i32 %27, %.1
  %29 = tail call i32 @feof(ptr noundef %0) #20
  %30 = icmp eq i32 %29, 0
  br i1 %30, label %5, label %.critedge, !llvm.loop !20

.critedge:                                        ; preds = %22, %26
  %31 = load i32, ptr %2, align 4
  %32 = icmp sgt i32 %31, 36863
  br i1 %32, label %.loopexit, label %33

33:                                               ; preds = %.critedge
  %34 = tail call i32 @feof(ptr noundef %0) #20
  %.not = icmp eq i32 %34, 0
  br i1 %.not, label %35, label %.loopexit

35:                                               ; preds = %33
  %36 = load ptr, ptr %1, align 8
  %37 = tail call i64 @strlen(ptr noundef nonnull dereferenceable(1) %36) #23
  %38 = shl i64 %37, 32
  %sext = add i64 %38, -4294967296
  %39 = ashr exact i64 %sext, 32
  %40 = getelementptr inbounds i8, ptr %36, i64 %39
  %41 = load i8, ptr %40, align 1
  %42 = icmp eq i8 %41, 10
  br i1 %42, label %43, label %.loopexit

43:                                               ; preds = %35
  store i8 0, ptr %40, align 1
  %.pre = load ptr, ptr %1, align 8
  br label %.loopexit

.loopexit:                                        ; preds = %16, %35, %43, %33, %.critedge
  %.0 = phi ptr [ null, %.critedge ], [ null, %33 ], [ %.pre, %43 ], [ %36, %35 ], [ null, %16 ]
  ret ptr %.0
}